target datalayout = "e-m:e-p270:32:32-p271:32:32-p272:64:64-i64:64-i128:128-f80:128-n8:16:32:64-S128"
target triple = "x86_64-pc-linux-gnu"

%struct.rlimit = type { i64, i64 }

@_ZN3nix14savedStackSizeE = global i64 0, align 8

; Function Attrs: mustprogress uwtable
define void @_ZN3nix21restoreProcessContextEb(i1 noundef zeroext %0) #3 {
  %2 = alloca i8, align 1
  %3 = alloca %struct.rlimit, align 8
  %4 = zext i1 %0 to i8
  store i8 %4, ptr %2, align 1
  call void @_ZN3nix14restoreSignalsEv()
  %5 = load i8, ptr %2, align 1
  %6 = trunc i8 %5 to i1
  br i1 %6, label %7, label %8

7:                                                ; preds = %1
  call void @_ZN3nix21restoreMountNamespaceEv()
  br label %8

8:                                                ; preds = %7, %1
  %9 = load i64, ptr @_ZN3nix14savedStackSizeE, align 8
  %10 = icmp ne i64 %9, 0
  br i1 %10, label %11, label %19

11:                                               ; preds = %8
  %12 = call i32 @getrlimit(i32 noundef 3, ptr noundef %3) #1
  %13 = icmp eq i32 %12, 0
  br i1 %13, label %14, label %18

14:                                               ; preds = %11
  %15 = load i64, ptr @_ZN3nix14savedStackSizeE, align 8
  %16 = getelementptr inbounds %struct.rlimit, ptr %3, i32 0, i32 0
  store i64 %15, ptr %16, align 8
  %17 = call i32 @setrlimit(i32 noundef 3, ptr noundef %3) #1
  br label %18

18:                                               ; preds = %14, %11
  br label %19

19:                                               ; preds = %18, %8
  ret void
}