; Function Attrs: mustprogress uwtable
define void @_ZN3nix21restoreProcessContextEb(i1 noundef zeroext %0) local_unnamed_addr #2 {
  %2 = alloca %struct.rlimit, align 8
  tail call void @_ZN3nix14restoreSignalsEv()
  br i1 %0, label %3, label %4

3:                                                ; preds = %1
  tail call void @_ZN3nix21restoreMountNamespaceEv()
  br label %4

4:                                                ; preds = %3, %1
  %5 = load i64, ptr @_ZN3nix14savedStackSizeE, align 8
  %.not = icmp eq i64 %5, 0
  br i1 %.not, label %12, label %6

6:                                                ; preds = %4
  %7 = call i32 @getrlimit(i32 noundef 3, ptr noundef nonnull %2) #25
  %8 = icmp eq i32 %7, 0
  br i1 %8, label %9, label %12

9:                                                ; preds = %6
  %10 = load i64, ptr @_ZN3nix14savedStackSizeE, align 8
  store i64 %10, ptr %2, align 8
  %11 = call i32 @setrlimit(i32 noundef 3, ptr noundef nonnull %2) #25
  br label %12

12:                                               ; preds = %6, %9, %4
  ret void
}